; Function Attrs: mustprogress uwtable
define hidden void @_ZN2lp10hnf_cutter9fill_termERK6vectorI8rationalLb1EjERNS_8lar_termE(ptr nocapture noundef nonnull readonly align 8 dereferenceable(208) %this, ptr nocapture noundef nonnull readonly align 8 dereferenceable(8) %row, ptr noundef nonnull align 8 dereferenceable(24) %t) local_unnamed_addr #3 align 2 {
entry:
  %m_var_register = getelementptr inbounds i8, ptr %this, i64 136
  %m_locals_mask_inverted.i = getelementptr inbounds i8, ptr %this, i64 204
  br label %for.cond

for.cond:                                         ; preds = %for.inc, %entry
  %indvars.iv = phi i64 [ %indvars.iv.next, %for.inc ], [ 0, %entry ]
  %0 = load ptr, ptr %row, align 8
  %cmp.i = icmp eq ptr %0, null
  br i1 %cmp.i, label %_ZNK6vectorI8rationalLb1EjE4sizeEv.exit, label %if.end.i

if.end.i:                                         ; preds = %for.cond
  %arrayidx.i = getelementptr inbounds i8, ptr %0, i64 -4
  %1 = load i32, ptr %arrayidx.i, align 4
  br label %_ZNK6vectorI8rationalLb1EjE4sizeEv.exit

_ZNK6vectorI8rationalLb1EjE4sizeEv.exit:          ; preds = %for.cond, %if.end.i
  %retval.0.i = phi i32 [ %1, %if.end.i ], [ 0, %for.cond ]
  %2 = zext i32 %retval.0.i to i64
  %cmp = icmp ult i64 %indvars.iv, %2
  br i1 %cmp, label %for.body, label %for.end

for.body:                                         ; preds = %_ZNK6vectorI8rationalLb1EjE4sizeEv.exit
  %arrayidx.i7 = getelementptr inbounds %class.rational, ptr %0, i64 %indvars.iv
  %3 = load i32, ptr %arrayidx.i7, align 8
  %cmp.i.i.i.i.i.i = icmp eq i32 %3, 0
  br i1 %cmp.i.i.i.i.i.i, label %for.inc, label %if.then

if.then:                                          ; preds = %for.body
  %4 = load i32, ptr %m_locals_mask_inverted.i, align 4
  %5 = trunc i64 %indvars.iv to i32
  %and.i = and i32 %4, %5
  %6 = load ptr, ptr %m_var_register, align 8
  %cmp.i.i = icmp eq ptr %6, null
  br i1 %cmp.i.i, label %_ZNK2lp12var_register17local_to_externalEj.exit, label %_ZNK6vectorIN2lp12ext_var_infoELb1EjE4sizeEv.exit.i

_ZNK6vectorIN2lp12ext_var_infoELb1EjE4sizeEv.exit.i: ; preds = %if.then
  %arrayidx.i.i = getelementptr inbounds i8, ptr %6, i64 -4
  %7 = load i32, ptr %arrayidx.i.i, align 4
  %cmp.not.i = icmp ult i32 %and.i, %7
  br i1 %cmp.not.i, label %if.end.i11, label %_ZNK2lp12var_register17local_to_externalEj.exit

if.end.i11:                                       ; preds = %_ZNK6vectorIN2lp12ext_var_infoELb1EjE4sizeEv.exit.i
  %idxprom.i.i = zext i32 %and.i to i64
  %arrayidx.i2.i = getelementptr inbounds %"class.lp::ext_var_info", ptr %6, i64 %idxprom.i.i
  %8 = load i32, ptr %arrayidx.i2.i, align 8
  br label %_ZNK2lp12var_register17local_to_externalEj.exit

_ZNK2lp12var_register17local_to_externalEj.exit:  ; preds = %if.then, %_ZNK6vectorIN2lp12ext_var_infoELb1EjE4sizeEv.exit.i, %if.end.i11
  %retval.0.i10 = phi i32 [ %8, %if.end.i11 ], [ -1, %_ZNK6vectorIN2lp12ext_var_infoELb1EjE4sizeEv.exit.i ], [ -1, %if.then ]
  tail call void @_ZN2lp8lar_term12add_monomialERK8rationalj(ptr noundef nonnull align 8 dereferenceable(24) %t, ptr noundef nonnull align 8 dereferenceable(32) %arrayidx.i7, i32 noundef %retval.0.i10)
  br label %for.inc

for.inc:                                          ; preds = %for.body, %_ZNK2lp12var_register17local_to_externalEj.exit
  %indvars.iv.next = add nuw nsw i64 %indvars.iv, 1
  br label %for.cond, !llvm.loop !59

for.end:                                          ; preds = %_ZNK6vectorI8rationalLb1EjE4sizeEv.exit
  ret void
}